target datalayout = "e-m:e-p270:32:32-p271:32:32-p272:64:64-i64:64-i128:128-f80:128-n8:16:32:64-S128"
target triple = "x86_64-pc-linux-gnu"

%struct.ident_t = type { i32, i32, i32, i32, ptr }

@1 = private unnamed_addr constant %struct.ident_t { i32 0, i32 514, i32 0, i32 22, ptr @0 }, align 8

; Function Attrs: alwaysinline norecurse nounwind uwtable
define internal void @_ZN8LightGBML24Int32HistogramSumReducerEPKcPcii.omp_outlined(ptr noalias noundef %0, ptr noalias noundef %1, ptr noundef nonnull align 4 dereferenceable(4) %2, ptr noundef nonnull align 8 dereferenceable(8) %3, ptr noundef nonnull align 8 dereferenceable(8) %4) #20 {
  %6 = alloca ptr, align 8
  %7 = alloca ptr, align 8
  %8 = alloca ptr, align 8
  %9 = alloca ptr, align 8
  %10 = alloca ptr, align 8
  %11 = alloca i32, align 4
  %12 = alloca i32, align 4
  %13 = alloca i32, align 4
  %14 = alloca i32, align 4
  %15 = alloca i32, align 4
  %16 = alloca i32, align 4
  %17 = alloca i32, align 4
  %18 = alloca i32, align 4
  %19 = alloca i32, align 4
  store ptr %0, ptr %6, align 8, !tbaa !180
  store ptr %1, ptr %7, align 8, !tbaa !180
  store ptr %2, ptr %8, align 8, !tbaa !180
  store ptr %3, ptr %9, align 8, !tbaa !318
  store ptr %4, ptr %10, align 8, !tbaa !318
  %20 = load ptr, ptr %8, align 8, !tbaa !180
  %21 = load ptr, ptr %9, align 8, !tbaa !318
  %22 = load ptr, ptr %10, align 8, !tbaa !318
  call void @llvm.lifetime.start.p0(i64 4, ptr %11) #7
  call void @llvm.lifetime.start.p0(i64 4, ptr %12) #7
  %23 = load i32, ptr %20, align 4, !tbaa !149
  store i32 %23, ptr %12, align 4, !tbaa !149
  call void @llvm.lifetime.start.p0(i64 4, ptr %13) #7
  %24 = load i32, ptr %12, align 4, !tbaa !149
  %25 = sub nsw i32 %24, 0
  %26 = sdiv i32 %25, 1
  %27 = sub nsw i32 %26, 1
  store i32 %27, ptr %13, align 4, !tbaa !149
  call void @llvm.lifetime.start.p0(i64 4, ptr %14) #7
  store i32 0, ptr %14, align 4, !tbaa !149
  call void @llvm.lifetime.end.p0(i64 4, ptr %14) #7
  %28 = load i32, ptr %12, align 4, !tbaa !149
  %29 = icmp slt i32 0, %28
  br i1 %29, label %30, label %72

30:                                               ; preds = %5
  call void @llvm.lifetime.start.p0(i64 4, ptr %15) #7
  store i32 0, ptr %15, align 4, !tbaa !149
  call void @llvm.lifetime.start.p0(i64 4, ptr %16) #7
  %31 = load i32, ptr %13, align 4, !tbaa !149
  store i32 %31, ptr %16, align 4, !tbaa !149
  call void @llvm.lifetime.start.p0(i64 4, ptr %17) #7
  store i32 1, ptr %17, align 4, !tbaa !149
  call void @llvm.lifetime.start.p0(i64 4, ptr %18) #7
  store i32 0, ptr %18, align 4, !tbaa !149
  call void @llvm.lifetime.start.p0(i64 4, ptr %19) #7
  %32 = load ptr, ptr %6, align 8
  %33 = load i32, ptr %32, align 4, !tbaa !149
  call void @__kmpc_for_static_init_4(ptr @1, i32 %33, i32 34, ptr %18, ptr %15, ptr %16, ptr %17, i32 1, i32 1)
  %34 = load i32, ptr %16, align 4, !tbaa !149
  %35 = load i32, ptr %13, align 4, !tbaa !149
  %36 = icmp sgt i32 %34, %35
  br i1 %36, label %37, label %39

37:                                               ; preds = %30
  %38 = load i32, ptr %13, align 4, !tbaa !149
  br label %41

39:                                               ; preds = %30
  %40 = load i32, ptr %16, align 4, !tbaa !149
  br label %41

41:                                               ; preds = %39, %37
  %42 = phi i32 [ %38, %37 ], [ %40, %39 ]
  store i32 %42, ptr %16, align 4, !tbaa !149
  %43 = load i32, ptr %15, align 4, !tbaa !149
  store i32 %43, ptr %11, align 4, !tbaa !149
  br label %44

44:                                               ; preds = %65, %41
  %45 = load i32, ptr %11, align 4, !tbaa !149
  %46 = load i32, ptr %16, align 4, !tbaa !149
  %47 = icmp sle i32 %45, %46
  br i1 %47, label %49, label %48

48:                                               ; preds = %44
  br label %68

49:                                               ; preds = %44
  %50 = load i32, ptr %11, align 4, !tbaa !149
  %51 = mul nsw i32 %50, 1
  %52 = add nsw i32 0, %51
  store i32 %52, ptr %19, align 4, !tbaa !149
  %53 = load ptr, ptr %22, align 8, !tbaa !269
  %54 = load i32, ptr %19, align 4, !tbaa !149
  %55 = sext i32 %54 to i64
  %56 = getelementptr inbounds i64, ptr %53, i64 %55
  %57 = load i64, ptr %56, align 8, !tbaa !150
  %58 = load ptr, ptr %21, align 8, !tbaa !269
  %59 = load i32, ptr %19, align 4, !tbaa !149
  %60 = sext i32 %59 to i64
  %61 = getelementptr inbounds i64, ptr %58, i64 %60
  %62 = load i64, ptr %61, align 8, !tbaa !150
  %63 = add nsw i64 %62, %57
  store i64 %63, ptr %61, align 8, !tbaa !150
  br label %64

64:                                               ; preds = %49
  br label %65

65:                                               ; preds = %64
  %66 = load i32, ptr %11, align 4, !tbaa !149
  %67 = add nsw i32 %66, 1
  store i32 %67, ptr %11, align 4, !tbaa !149
  br label %44

68:                                               ; preds = %48
  br label %69

69:                                               ; preds = %68
  %70 = load ptr, ptr %6, align 8
  %71 = load i32, ptr %70, align 4, !tbaa !149
  call void @__kmpc_for_static_fini(ptr @1, i32 %71)
  call void @llvm.lifetime.end.p0(i64 4, ptr %19) #7
  call void @llvm.lifetime.end.p0(i64 4, ptr %18) #7
  call void @llvm.lifetime.end.p0(i64 4, ptr %17) #7
  call void @llvm.lifetime.end.p0(i64 4, ptr %16) #7
  call void @llvm.lifetime.end.p0(i64 4, ptr %15) #7
  br label %72

72:                                               ; preds = %69, %5
  call void @llvm.lifetime.end.p0(i64 4, ptr %13) #7
  call void @llvm.lifetime.end.p0(i64 4, ptr %12) #7
  call void @llvm.lifetime.end.p0(i64 4, ptr %11) #7
  ret void
}