; Function Attrs: alwaysinline norecurse nounwind uwtable
define internal void @_ZN8LightGBML24Int32HistogramSumReducerEPKcPcii.omp_outlined(ptr noalias noundef readonly captures(none) %0, ptr noalias readnone captures(none) %1, ptr noundef nonnull readonly align 4 captures(none) dereferenceable(4) %2, ptr noundef nonnull readonly align 8 captures(none) dereferenceable(8) %3, ptr noundef nonnull readonly align 8 captures(none) dereferenceable(8) %4) #20 {
  %6 = alloca i32, align 4
  %7 = alloca i32, align 4
  %8 = alloca i32, align 4
  %9 = alloca i32, align 4
  %10 = load i32, ptr %2, align 4, !tbaa !209
  %11 = icmp sgt i32 %10, 0
  br i1 %11, label %12, label %28

12:                                               ; preds = %5
  %13 = add nsw i32 %10, -1
  call void @llvm.lifetime.start.p0(i64 4, ptr nonnull %6) #21
  store i32 0, ptr %6, align 4, !tbaa !209
  call void @llvm.lifetime.start.p0(i64 4, ptr nonnull %7) #21
  store i32 %13, ptr %7, align 4, !tbaa !209
  call void @llvm.lifetime.start.p0(i64 4, ptr nonnull %8) #21
  store i32 1, ptr %8, align 4, !tbaa !209
  call void @llvm.lifetime.start.p0(i64 4, ptr nonnull %9) #21
  store i32 0, ptr %9, align 4, !tbaa !209
  %14 = load i32, ptr %0, align 4, !tbaa !209
  call void @__kmpc_for_static_init_4(ptr nonnull @1, i32 %14, i32 34, ptr nonnull %9, ptr nonnull %6, ptr nonnull %7, ptr nonnull %8, i32 1, i32 1)
  %15 = load i32, ptr %7, align 4, !tbaa !209
  %16 = call i32 @llvm.smin.i32(i32 %15, i32 %13)
  store i32 %16, ptr %7, align 4, !tbaa !209
  %17 = load i32, ptr %6, align 4, !tbaa !209
  %.not14 = icmp sgt i32 %17, %16
  br i1 %.not14, label %._crit_edge, label %.lr.ph

.lr.ph:                                           ; preds = %12
  %18 = load ptr, ptr %4, align 8, !tbaa !334
  %19 = load ptr, ptr %3, align 8, !tbaa !334
  %20 = sext i32 %17 to i64
  %21 = add nsw i32 %16, 1
  br label %22

22:                                               ; preds = %.lr.ph, %22
  %indvars.iv = phi i64 [ %20, %.lr.ph ], [ %indvars.iv.next, %22 ]
  %23 = getelementptr inbounds i64, ptr %18, i64 %indvars.iv
  %24 = load i64, ptr %23, align 8, !tbaa !257
  %25 = getelementptr inbounds i64, ptr %19, i64 %indvars.iv
  %26 = load i64, ptr %25, align 8, !tbaa !257
  %27 = add nsw i64 %26, %24
  store i64 %27, ptr %25, align 8, !tbaa !257
  %indvars.iv.next = add nsw i64 %indvars.iv, 1
  %lftr.wideiv = trunc i64 %indvars.iv.next to i32
  %exitcond.not = icmp eq i32 %21, %lftr.wideiv
  br i1 %exitcond.not, label %._crit_edge, label %22

._crit_edge:                                      ; preds = %22, %12
  call void @__kmpc_for_static_fini(ptr nonnull @1, i32 %14)
  call void @llvm.lifetime.end.p0(i64 4, ptr nonnull %9) #21
  call void @llvm.lifetime.end.p0(i64 4, ptr nonnull %8) #21
  call void @llvm.lifetime.end.p0(i64 4, ptr nonnull %7) #21
  call void @llvm.lifetime.end.p0(i64 4, ptr nonnull %6) #21
  br label %28

28:                                               ; preds = %._crit_edge, %5
  ret void
}